target datalayout = "e-m:e-p270:32:32-p271:32:32-p272:64:64-i64:64-i128:128-f80:128-n8:16:32:64-S128"
target triple = "x86_64-pc-linux-gnu"

%struct.stbhw_config = type { i32, i32, [6 x i32], i32, i32, [4 x [4 x i32]] }

; Function Attrs: nounwind uwtable
define void @stbhw__get_template_info(ptr noundef %0, ptr noundef %1, ptr noundef %2, ptr noundef %3, ptr noundef %4) #0 {
  %6 = alloca ptr, align 8
  %7 = alloca ptr, align 8
  %8 = alloca ptr, align 8
  %9 = alloca ptr, align 8
  %10 = alloca ptr, align 8
  %11 = alloca i32, align 4
  %12 = alloca i32, align 4
  %13 = alloca i32, align 4
  %14 = alloca i32, align 4
  %15 = alloca i32, align 4
  %16 = alloca i32, align 4
  %17 = alloca i32, align 4
  %18 = alloca i32, align 4
  %19 = alloca i32, align 4
  %20 = alloca i32, align 4
  %21 = alloca i32, align 4
  %22 = alloca i32, align 4
  %23 = alloca i32, align 4
  %24 = alloca i32, align 4
  %25 = alloca i32, align 4
  %26 = alloca i32, align 4
  %27 = alloca i32, align 4
  %28 = alloca i32, align 4
  %29 = alloca i32, align 4
  %30 = alloca i32, align 4
  store ptr %0, ptr %6, align 8, !tbaa !34
  store ptr %1, ptr %7, align 8, !tbaa !35
  store ptr %2, ptr %8, align 8, !tbaa !35
  store ptr %3, ptr %9, align 8, !tbaa !35
  store ptr %4, ptr %10, align 8, !tbaa !35
  call void @llvm.lifetime.start.p0(i64 4, ptr %11) #6
  call void @llvm.lifetime.start.p0(i64 4, ptr %12) #6
  call void @llvm.lifetime.start.p0(i64 4, ptr %13) #6
  call void @llvm.lifetime.start.p0(i64 4, ptr %14) #6
  %31 = load ptr, ptr %6, align 8, !tbaa !34
  %32 = getelementptr inbounds nuw %struct.stbhw_config, ptr %31, i32 0, i32 0
  %33 = load i32, ptr %32, align 4, !tbaa !37
  %34 = icmp ne i32 %33, 0
  br i1 %34, label %35, label %154

35:                                               ; preds = %5
  call void @llvm.lifetime.start.p0(i64 4, ptr %15) #6
  %36 = load ptr, ptr %6, align 8, !tbaa !34
  %37 = getelementptr inbounds nuw %struct.stbhw_config, ptr %36, i32 0, i32 2
  %38 = getelementptr inbounds [6 x i32], ptr %37, i64 0, i64 1
  %39 = load i32, ptr %38, align 4, !tbaa !10
  %40 = load ptr, ptr %6, align 8, !tbaa !34
  %41 = getelementptr inbounds nuw %struct.stbhw_config, ptr %40, i32 0, i32 2
  %42 = getelementptr inbounds [6 x i32], ptr %41, i64 0, i64 2
  %43 = load i32, ptr %42, align 4, !tbaa !10
  %44 = mul nsw i32 %39, %43
  %45 = load ptr, ptr %6, align 8, !tbaa !34
  %46 = getelementptr inbounds nuw %struct.stbhw_config, ptr %45, i32 0, i32 2
  %47 = getelementptr inbounds [6 x i32], ptr %46, i64 0, i64 3
  %48 = load i32, ptr %47, align 4, !tbaa !10
  %49 = mul nsw i32 %44, %48
  %50 = load ptr, ptr %6, align 8, !tbaa !34
  %51 = getelementptr inbounds nuw %struct.stbhw_config, ptr %50, i32 0, i32 3
  %52 = load i32, ptr %51, align 4, !tbaa !38
  %53 = mul nsw i32 %49, %52
  store i32 %53, ptr %15, align 4, !tbaa !10
  call void @llvm.lifetime.start.p0(i64 4, ptr %16) #6
  %54 = load ptr, ptr %6, align 8, !tbaa !34
  %55 = getelementptr inbounds nuw %struct.stbhw_config, ptr %54, i32 0, i32 2
  %56 = getelementptr inbounds [6 x i32], ptr %55, i64 0, i64 0
  %57 = load i32, ptr %56, align 4, !tbaa !10
  %58 = load ptr, ptr %6, align 8, !tbaa !34
  %59 = getelementptr inbounds nuw %struct.stbhw_config, ptr %58, i32 0, i32 2
  %60 = getelementptr inbounds [6 x i32], ptr %59, i64 0, i64 1
  %61 = load i32, ptr %60, align 4, !tbaa !10
  %62 = mul nsw i32 %57, %61
  %63 = load ptr, ptr %6, align 8, !tbaa !34
  %64 = getelementptr inbounds nuw %struct.stbhw_config, ptr %63, i32 0, i32 2
  %65 = getelementptr inbounds [6 x i32], ptr %64, i64 0, i64 2
  %66 = load i32, ptr %65, align 4, !tbaa !10
  %67 = mul nsw i32 %62, %66
  %68 = load ptr, ptr %6, align 8, !tbaa !34
  %69 = getelementptr inbounds nuw %struct.stbhw_config, ptr %68, i32 0, i32 4
  %70 = load i32, ptr %69, align 4, !tbaa !39
  %71 = mul nsw i32 %67, %70
  store i32 %71, ptr %16, align 4, !tbaa !10
  call void @llvm.lifetime.start.p0(i64 4, ptr %17) #6
  %72 = load ptr, ptr %6, align 8, !tbaa !34
  %73 = getelementptr inbounds nuw %struct.stbhw_config, ptr %72, i32 0, i32 2
  %74 = getelementptr inbounds [6 x i32], ptr %73, i64 0, i64 0
  %75 = load i32, ptr %74, align 4, !tbaa !10
  %76 = load ptr, ptr %6, align 8, !tbaa !34
  %77 = getelementptr inbounds nuw %struct.stbhw_config, ptr %76, i32 0, i32 2
  %78 = getelementptr inbounds [6 x i32], ptr %77, i64 0, i64 3
  %79 = load i32, ptr %78, align 4, !tbaa !10
  %80 = mul nsw i32 %75, %79
  %81 = load ptr, ptr %6, align 8, !tbaa !34
  %82 = getelementptr inbounds nuw %struct.stbhw_config, ptr %81, i32 0, i32 2
  %83 = getelementptr inbounds [6 x i32], ptr %82, i64 0, i64 2
  %84 = load i32, ptr %83, align 4, !tbaa !10
  %85 = mul nsw i32 %80, %84
  %86 = load ptr, ptr %6, align 8, !tbaa !34
  %87 = getelementptr inbounds nuw %struct.stbhw_config, ptr %86, i32 0, i32 4
  %88 = load i32, ptr %87, align 4, !tbaa !39
  %89 = mul nsw i32 %85, %88
  store i32 %89, ptr %17, align 4, !tbaa !10
  call void @llvm.lifetime.start.p0(i64 4, ptr %18) #6
  %90 = load ptr, ptr %6, align 8, !tbaa !34
  %91 = getelementptr inbounds nuw %struct.stbhw_config, ptr %90, i32 0, i32 2
  %92 = getelementptr inbounds [6 x i32], ptr %91, i64 0, i64 1
  %93 = load i32, ptr %92, align 4, !tbaa !10
  %94 = load ptr, ptr %6, align 8, !tbaa !34
  %95 = getelementptr inbounds nuw %struct.stbhw_config, ptr %94, i32 0, i32 2
  %96 = getelementptr inbounds [6 x i32], ptr %95, i64 0, i64 0
  %97 = load i32, ptr %96, align 4, !tbaa !10
  %98 = mul nsw i32 %93, %97
  %99 = load ptr, ptr %6, align 8, !tbaa !34
  %100 = getelementptr inbounds nuw %struct.stbhw_config, ptr %99, i32 0, i32 2
  %101 = getelementptr inbounds [6 x i32], ptr %100, i64 0, i64 3
  %102 = load i32, ptr %101, align 4, !tbaa !10
  %103 = mul nsw i32 %98, %102
  %104 = load ptr, ptr %6, align 8, !tbaa !34
  %105 = getelementptr inbounds nuw %struct.stbhw_config, ptr %104, i32 0, i32 3
  %106 = load i32, ptr %105, align 4, !tbaa !38
  %107 = mul nsw i32 %103, %106
  store i32 %107, ptr %18, align 4, !tbaa !10
  call void @llvm.lifetime.start.p0(i64 4, ptr %19) #6
  %108 = load i32, ptr %15, align 4, !tbaa !10
  %109 = load ptr, ptr %6, align 8, !tbaa !34
  %110 = getelementptr inbounds nuw %struct.stbhw_config, ptr %109, i32 0, i32 1
  %111 = load i32, ptr %110, align 4, !tbaa !16
  %112 = mul nsw i32 2, %111
  %113 = add nsw i32 %112, 3
  %114 = mul nsw i32 %108, %113
  store i32 %114, ptr %19, align 4, !tbaa !10
  call void @llvm.lifetime.start.p0(i64 4, ptr %20) #6
  %115 = load i32, ptr %16, align 4, !tbaa !10
  %116 = load ptr, ptr %6, align 8, !tbaa !34
  %117 = getelementptr inbounds nuw %struct.stbhw_config, ptr %116, i32 0, i32 1
  %118 = load i32, ptr %117, align 4, !tbaa !16
  %119 = add nsw i32 %118, 3
  %120 = mul nsw i32 %115, %119
  store i32 %120, ptr %20, align 4, !tbaa !10
  call void @llvm.lifetime.start.p0(i64 4, ptr %21) #6
  %121 = load i32, ptr %17, align 4, !tbaa !10
  %122 = load ptr, ptr %6, align 8, !tbaa !34
  %123 = getelementptr inbounds nuw %struct.stbhw_config, ptr %122, i32 0, i32 1
  %124 = load i32, ptr %123, align 4, !tbaa !16
  %125 = add nsw i32 %124, 3
  %126 = mul nsw i32 %121, %125
  store i32 %126, ptr %21, align 4, !tbaa !10
  call void @llvm.lifetime.start.p0(i64 4, ptr %22) #6
  %127 = load i32, ptr %18, align 4, !tbaa !10
  %128 = load ptr, ptr %6, align 8, !tbaa !34
  %129 = getelementptr inbounds nuw %struct.stbhw_config, ptr %128, i32 0, i32 1
  %130 = load i32, ptr %129, align 4, !tbaa !16
  %131 = mul nsw i32 2, %130
  %132 = add nsw i32 %131, 3
  %133 = mul nsw i32 %127, %132
  store i32 %133, ptr %22, align 4, !tbaa !10
  %134 = load i32, ptr %15, align 4, !tbaa !10
  %135 = load i32, ptr %16, align 4, !tbaa !10
  %136 = mul nsw i32 %134, %135
  store i32 %136, ptr %13, align 4, !tbaa !10
  %137 = load i32, ptr %17, align 4, !tbaa !10
  %138 = load i32, ptr %18, align 4, !tbaa !10
  %139 = mul nsw i32 %137, %138
  store i32 %139, ptr %14, align 4, !tbaa !10
  %140 = load i32, ptr %19, align 4, !tbaa !10
  %141 = load i32, ptr %21, align 4, !tbaa !10
  %142 = icmp sgt i32 %140, %141
  br i1 %142, label %143, label %145

143:                                              ; preds = %35
  %144 = load i32, ptr %19, align 4, !tbaa !10
  br label %147

145:                                              ; preds = %35
  %146 = load i32, ptr %21, align 4, !tbaa !10
  br label %147

147:                                              ; preds = %145, %143
  %148 = phi i32 [ %144, %143 ], [ %146, %145 ]
  store i32 %148, ptr %11, align 4, !tbaa !10
  %149 = load i32, ptr %20, align 4, !tbaa !10
  %150 = add nsw i32 2, %149
  %151 = add nsw i32 %150, 2
  %152 = load i32, ptr %22, align 4, !tbaa !10
  %153 = add nsw i32 %151, %152
  store i32 %153, ptr %12, align 4, !tbaa !10
  call void @llvm.lifetime.end.p0(i64 4, ptr %22) #6
  call void @llvm.lifetime.end.p0(i64 4, ptr %21) #6
  call void @llvm.lifetime.end.p0(i64 4, ptr %20) #6
  call void @llvm.lifetime.end.p0(i64 4, ptr %19) #6
  call void @llvm.lifetime.end.p0(i64 4, ptr %18) #6
  call void @llvm.lifetime.end.p0(i64 4, ptr %17) #6
  call void @llvm.lifetime.end.p0(i64 4, ptr %16) #6
  call void @llvm.lifetime.end.p0(i64 4, ptr %15) #6
  br label %273

154:                                              ; preds = %5
  call void @llvm.lifetime.start.p0(i64 4, ptr %23) #6
  %155 = load ptr, ptr %6, align 8, !tbaa !34
  %156 = getelementptr inbounds nuw %struct.stbhw_config, ptr %155, i32 0, i32 2
  %157 = getelementptr inbounds [6 x i32], ptr %156, i64 0, i64 0
  %158 = load i32, ptr %157, align 4, !tbaa !10
  %159 = load ptr, ptr %6, align 8, !tbaa !34
  %160 = getelementptr inbounds nuw %struct.stbhw_config, ptr %159, i32 0, i32 2
  %161 = getelementptr inbounds [6 x i32], ptr %160, i64 0, i64 1
  %162 = load i32, ptr %161, align 4, !tbaa !10
  %163 = mul nsw i32 %158, %162
  %164 = load ptr, ptr %6, align 8, !tbaa !34
  %165 = getelementptr inbounds nuw %struct.stbhw_config, ptr %164, i32 0, i32 2
  %166 = getelementptr inbounds [6 x i32], ptr %165, i64 0, i64 2
  %167 = load i32, ptr %166, align 4, !tbaa !10
  %168 = mul nsw i32 %163, %167
  %169 = load ptr, ptr %6, align 8, !tbaa !34
  %170 = getelementptr inbounds nuw %struct.stbhw_config, ptr %169, i32 0, i32 3
  %171 = load i32, ptr %170, align 4, !tbaa !38
  %172 = mul nsw i32 %168, %171
  store i32 %172, ptr %23, align 4, !tbaa !10
  call void @llvm.lifetime.start.p0(i64 4, ptr %24) #6
  %173 = load ptr, ptr %6, align 8, !tbaa !34
  %174 = getelementptr inbounds nuw %struct.stbhw_config, ptr %173, i32 0, i32 2
  %175 = getelementptr inbounds [6 x i32], ptr %174, i64 0, i64 3
  %176 = load i32, ptr %175, align 4, !tbaa !10
  %177 = load ptr, ptr %6, align 8, !tbaa !34
  %178 = getelementptr inbounds nuw %struct.stbhw_config, ptr %177, i32 0, i32 2
  %179 = getelementptr inbounds [6 x i32], ptr %178, i64 0, i64 4
  %180 = load i32, ptr %179, align 4, !tbaa !10
  %181 = mul nsw i32 %176, %180
  %182 = load ptr, ptr %6, align 8, !tbaa !34
  %183 = getelementptr inbounds nuw %struct.stbhw_config, ptr %182, i32 0, i32 2
  %184 = getelementptr inbounds [6 x i32], ptr %183, i64 0, i64 2
  %185 = load i32, ptr %184, align 4, !tbaa !10
  %186 = mul nsw i32 %181, %185
  %187 = load ptr, ptr %6, align 8, !tbaa !34
  %188 = getelementptr inbounds nuw %struct.stbhw_config, ptr %187, i32 0, i32 4
  %189 = load i32, ptr %188, align 4, !tbaa !39
  %190 = mul nsw i32 %186, %189
  store i32 %190, ptr %24, align 4, !tbaa !10
  call void @llvm.lifetime.start.p0(i64 4, ptr %25) #6
  %191 = load ptr, ptr %6, align 8, !tbaa !34
  %192 = getelementptr inbounds nuw %struct.stbhw_config, ptr %191, i32 0, i32 2
  %193 = getelementptr inbounds [6 x i32], ptr %192, i64 0, i64 0
  %194 = load i32, ptr %193, align 4, !tbaa !10
  %195 = load ptr, ptr %6, align 8, !tbaa !34
  %196 = getelementptr inbounds nuw %struct.stbhw_config, ptr %195, i32 0, i32 2
  %197 = getelementptr inbounds [6 x i32], ptr %196, i64 0, i64 5
  %198 = load i32, ptr %197, align 4, !tbaa !10
  %199 = mul nsw i32 %194, %198
  %200 = load ptr, ptr %6, align 8, !tbaa !34
  %201 = getelementptr inbounds nuw %struct.stbhw_config, ptr %200, i32 0, i32 2
  %202 = getelementptr inbounds [6 x i32], ptr %201, i64 0, i64 1
  %203 = load i32, ptr %202, align 4, !tbaa !10
  %204 = mul nsw i32 %199, %203
  %205 = load ptr, ptr %6, align 8, !tbaa !34
  %206 = getelementptr inbounds nuw %struct.stbhw_config, ptr %205, i32 0, i32 4
  %207 = load i32, ptr %206, align 4, !tbaa !39
  %208 = mul nsw i32 %204, %207
  store i32 %208, ptr %25, align 4, !tbaa !10
  call void @llvm.lifetime.start.p0(i64 4, ptr %26) #6
  %209 = load ptr, ptr %6, align 8, !tbaa !34
  %210 = getelementptr inbounds nuw %struct.stbhw_config, ptr %209, i32 0, i32 2
  %211 = getelementptr inbounds [6 x i32], ptr %210, i64 0, i64 3
  %212 = load i32, ptr %211, align 4, !tbaa !10
  %213 = load ptr, ptr %6, align 8, !tbaa !34
  %214 = getelementptr inbounds nuw %struct.stbhw_config, ptr %213, i32 0, i32 2
  %215 = getelementptr inbounds [6 x i32], ptr %214, i64 0, i64 4
  %216 = load i32, ptr %215, align 4, !tbaa !10
  %217 = mul nsw i32 %212, %216
  %218 = load ptr, ptr %6, align 8, !tbaa !34
  %219 = getelementptr inbounds nuw %struct.stbhw_config, ptr %218, i32 0, i32 2
  %220 = getelementptr inbounds [6 x i32], ptr %219, i64 0, i64 5
  %221 = load i32, ptr %220, align 4, !tbaa !10
  %222 = mul nsw i32 %217, %221
  %223 = load ptr, ptr %6, align 8, !tbaa !34
  %224 = getelementptr inbounds nuw %struct.stbhw_config, ptr %223, i32 0, i32 3
  %225 = load i32, ptr %224, align 4, !tbaa !38
  %226 = mul nsw i32 %222, %225
  store i32 %226, ptr %26, align 4, !tbaa !10
  call void @llvm.lifetime.start.p0(i64 4, ptr %27) #6
  %227 = load i32, ptr %23, align 4, !tbaa !10
  %228 = load ptr, ptr %6, align 8, !tbaa !34
  %229 = getelementptr inbounds nuw %struct.stbhw_config, ptr %228, i32 0, i32 1
  %230 = load i32, ptr %229, align 4, !tbaa !16
  %231 = mul nsw i32 2, %230
  %232 = add nsw i32 %231, 3
  %233 = mul nsw i32 %227, %232
  store i32 %233, ptr %27, align 4, !tbaa !10
  call void @llvm.lifetime.start.p0(i64 4, ptr %28) #6
  %234 = load i32, ptr %24, align 4, !tbaa !10
  %235 = load ptr, ptr %6, align 8, !tbaa !34
  %236 = getelementptr inbounds nuw %struct.stbhw_config, ptr %235, i32 0, i32 1
  %237 = load i32, ptr %236, align 4, !tbaa !16
  %238 = add nsw i32 %237, 3
  %239 = mul nsw i32 %234, %238
  store i32 %239, ptr %28, align 4, !tbaa !10
  call void @llvm.lifetime.start.p0(i64 4, ptr %29) #6
  %240 = load i32, ptr %25, align 4, !tbaa !10
  %241 = load ptr, ptr %6, align 8, !tbaa !34
  %242 = getelementptr inbounds nuw %struct.stbhw_config, ptr %241, i32 0, i32 1
  %243 = load i32, ptr %242, align 4, !tbaa !16
  %244 = add nsw i32 %243, 3
  %245 = mul nsw i32 %240, %244
  store i32 %245, ptr %29, align 4, !tbaa !10
  call void @llvm.lifetime.start.p0(i64 4, ptr %30) #6
  %246 = load i32, ptr %26, align 4, !tbaa !10
  %247 = load ptr, ptr %6, align 8, !tbaa !34
  %248 = getelementptr inbounds nuw %struct.stbhw_config, ptr %247, i32 0, i32 1
  %249 = load i32, ptr %248, align 4, !tbaa !16
  %250 = mul nsw i32 2, %249
  %251 = add nsw i32 %250, 3
  %252 = mul nsw i32 %246, %251
  store i32 %252, ptr %30, align 4, !tbaa !10
  %253 = load i32, ptr %23, align 4, !tbaa !10
  %254 = load i32, ptr %24, align 4, !tbaa !10
  %255 = mul nsw i32 %253, %254
  store i32 %255, ptr %13, align 4, !tbaa !10
  %256 = load i32, ptr %25, align 4, !tbaa !10
  %257 = load i32, ptr %26, align 4, !tbaa !10
  %258 = mul nsw i32 %256, %257
  store i32 %258, ptr %14, align 4, !tbaa !10
  %259 = load i32, ptr %27, align 4, !tbaa !10
  %260 = load i32, ptr %29, align 4, !tbaa !10
  %261 = icmp sgt i32 %259, %260
  br i1 %261, label %262, label %264

262:                                              ; preds = %154
  %263 = load i32, ptr %27, align 4, !tbaa !10
  br label %266

264:                                              ; preds = %154
  %265 = load i32, ptr %29, align 4, !tbaa !10
  br label %266

266:                                              ; preds = %264, %262
  %267 = phi i32 [ %263, %262 ], [ %265, %264 ]
  store i32 %267, ptr %11, align 4, !tbaa !10
  %268 = load i32, ptr %28, align 4, !tbaa !10
  %269 = add nsw i32 2, %268
  %270 = add nsw i32 %269, 2
  %271 = load i32, ptr %30, align 4, !tbaa !10
  %272 = add nsw i32 %270, %271
  store i32 %272, ptr %12, align 4, !tbaa !10
  call void @llvm.lifetime.end.p0(i64 4, ptr %30) #6
  call void @llvm.lifetime.end.p0(i64 4, ptr %29) #6
  call void @llvm.lifetime.end.p0(i64 4, ptr %28) #6
  call void @llvm.lifetime.end.p0(i64 4, ptr %27) #6
  call void @llvm.lifetime.end.p0(i64 4, ptr %26) #6
  call void @llvm.lifetime.end.p0(i64 4, ptr %25) #6
  call void @llvm.lifetime.end.p0(i64 4, ptr %24) #6
  call void @llvm.lifetime.end.p0(i64 4, ptr %23) #6
  br label %273

273:                                              ; preds = %266, %147
  %274 = load ptr, ptr %7, align 8, !tbaa !35
  %275 = icmp ne ptr %274, null
  br i1 %275, label %276, label %279

276:                                              ; preds = %273
  %277 = load i32, ptr %11, align 4, !tbaa !10
  %278 = load ptr, ptr %7, align 8, !tbaa !35
  store i32 %277, ptr %278, align 4, !tbaa !10
  br label %279

279:                                              ; preds = %276, %273
  %280 = load ptr, ptr %8, align 8, !tbaa !35
  %281 = icmp ne ptr %280, null
  br i1 %281, label %282, label %285

282:                                              ; preds = %279
  %283 = load i32, ptr %12, align 4, !tbaa !10
  %284 = load ptr, ptr %8, align 8, !tbaa !35
  store i32 %283, ptr %284, align 4, !tbaa !10
  br label %285

285:                                              ; preds = %282, %279
  %286 = load ptr, ptr %9, align 8, !tbaa !35
  %287 = icmp ne ptr %286, null
  br i1 %287, label %288, label %291

288:                                              ; preds = %285
  %289 = load i32, ptr %13, align 4, !tbaa !10
  %290 = load ptr, ptr %9, align 8, !tbaa !35
  store i32 %289, ptr %290, align 4, !tbaa !10
  br label %291

291:                                              ; preds = %288, %285
  %292 = load ptr, ptr %10, align 8, !tbaa !35
  %293 = icmp ne ptr %292, null
  br i1 %293, label %294, label %297

294:                                              ; preds = %291
  %295 = load i32, ptr %14, align 4, !tbaa !10
  %296 = load ptr, ptr %10, align 8, !tbaa !35
  store i32 %295, ptr %296, align 4, !tbaa !10
  br label %297

297:                                              ; preds = %294, %291
  call void @llvm.lifetime.end.p0(i64 4, ptr %14) #6
  call void @llvm.lifetime.end.p0(i64 4, ptr %13) #6
  call void @llvm.lifetime.end.p0(i64 4, ptr %12) #6
  call void @llvm.lifetime.end.p0(i64 4, ptr %11) #6
  ret void
}