; Function Attrs: mustprogress nofree norecurse nosync nounwind willreturn memory(argmem: readwrite) uwtable
define void @stbhw__get_template_info(ptr noundef readonly captures(none) %0, ptr noundef writeonly captures(address_is_null) %1, ptr noundef writeonly captures(address_is_null) %2, ptr noundef writeonly captures(address_is_null) %3, ptr noundef writeonly captures(address_is_null) %4) local_unnamed_addr #3 {
  %6 = load i32, ptr %0, align 4, !tbaa !31
  %.not = icmp eq i32 %6, 0
  %7 = getelementptr inbounds nuw i8, ptr %0, i64 8
  br i1 %.not, label %42, label %8

8:                                                ; preds = %5
  %9 = getelementptr inbounds nuw i8, ptr %0, i64 12
  %10 = load i32, ptr %9, align 4, !tbaa !32
  %11 = getelementptr inbounds nuw i8, ptr %0, i64 16
  %12 = load i32, ptr %11, align 4, !tbaa !32
  %13 = getelementptr inbounds nuw i8, ptr %0, i64 20
  %14 = load i32, ptr %13, align 4, !tbaa !32
  %15 = getelementptr inbounds nuw i8, ptr %0, i64 32
  %16 = load i32, ptr %15, align 4, !tbaa !33
  %17 = mul i32 %14, %12
  %18 = mul i32 %17, %10
  %19 = mul nsw i32 %18, %16
  %20 = load i32, ptr %7, align 4, !tbaa !32
  %21 = mul nsw i32 %20, %10
  %22 = getelementptr inbounds nuw i8, ptr %0, i64 36
  %23 = load i32, ptr %22, align 4, !tbaa !34
  %24 = mul i32 %23, %12
  %25 = mul i32 %24, %21
  %26 = mul i32 %17, %20
  %27 = mul nsw i32 %26, %23
  %28 = mul i32 %16, %14
  %29 = mul i32 %28, %21
  %30 = getelementptr inbounds nuw i8, ptr %0, i64 4
  %31 = load i32, ptr %30, align 4, !tbaa !13
  %32 = shl nsw i32 %31, 1
  %33 = add nsw i32 %32, 3
  %34 = mul nsw i32 %33, %19
  %35 = add nsw i32 %31, 3
  %36 = mul nsw i32 %25, %35
  %37 = mul nsw i32 %27, %35
  %38 = mul nsw i32 %33, %29
  %39 = mul nsw i32 %25, %19
  %40 = mul nsw i32 %27, %29
  %41 = tail call i32 @llvm.smax.i32(i32 %34, i32 %37)
  br label %80

42:                                               ; preds = %5
  %43 = load i32, ptr %7, align 4, !tbaa !32
  %44 = getelementptr inbounds nuw i8, ptr %0, i64 12
  %45 = load i32, ptr %44, align 4, !tbaa !32
  %46 = mul i32 %45, %43
  %47 = getelementptr inbounds nuw i8, ptr %0, i64 16
  %48 = load i32, ptr %47, align 4, !tbaa !32
  %49 = mul nsw i32 %46, %48
  %50 = getelementptr inbounds nuw i8, ptr %0, i64 32
  %51 = load i32, ptr %50, align 4, !tbaa !33
  %52 = mul nsw i32 %49, %51
  %53 = getelementptr inbounds nuw i8, ptr %0, i64 20
  %54 = load i32, ptr %53, align 4, !tbaa !32
  %55 = getelementptr inbounds nuw i8, ptr %0, i64 24
  %56 = load i32, ptr %55, align 4, !tbaa !32
  %57 = mul nsw i32 %56, %54
  %58 = mul nsw i32 %57, %48
  %59 = getelementptr inbounds nuw i8, ptr %0, i64 36
  %60 = load i32, ptr %59, align 4, !tbaa !34
  %61 = mul nsw i32 %58, %60
  %62 = getelementptr inbounds nuw i8, ptr %0, i64 28
  %63 = load i32, ptr %62, align 4, !tbaa !32
  %64 = mul i32 %46, %60
  %65 = mul i32 %64, %63
  %66 = mul i32 %57, %51
  %67 = mul i32 %66, %63
  %68 = getelementptr inbounds nuw i8, ptr %0, i64 4
  %69 = load i32, ptr %68, align 4, !tbaa !13
  %70 = shl nsw i32 %69, 1
  %71 = add nsw i32 %70, 3
  %72 = mul nsw i32 %71, %52
  %73 = add nsw i32 %69, 3
  %74 = mul nsw i32 %73, %61
  %75 = mul nsw i32 %65, %73
  %76 = mul nsw i32 %71, %67
  %77 = mul nsw i32 %61, %52
  %78 = mul nsw i32 %65, %67
  %79 = tail call i32 @llvm.smax.i32(i32 %72, i32 %75)
  br label %80

80:                                               ; preds = %42, %8
  %.sink92 = phi i32 [ %74, %42 ], [ %36, %8 ]
  %.sink91 = phi i32 [ %76, %42 ], [ %38, %8 ]
  %.082 = phi i32 [ %78, %42 ], [ %40, %8 ]
  %.081 = phi i32 [ %77, %42 ], [ %39, %8 ]
  %.0 = phi i32 [ %79, %42 ], [ %41, %8 ]
  %81 = add nsw i32 %.sink92, 4
  %82 = add nsw i32 %81, %.sink91
  %.not87 = icmp eq ptr %1, null
  br i1 %.not87, label %84, label %83

83:                                               ; preds = %80
  store i32 %.0, ptr %1, align 4, !tbaa !32
  br label %84

84:                                               ; preds = %83, %80
  %.not88 = icmp eq ptr %2, null
  br i1 %.not88, label %86, label %85

85:                                               ; preds = %84
  store i32 %82, ptr %2, align 4, !tbaa !32
  br label %86

86:                                               ; preds = %85, %84
  %.not89 = icmp eq ptr %3, null
  br i1 %.not89, label %88, label %87

87:                                               ; preds = %86
  store i32 %.081, ptr %3, align 4, !tbaa !32
  br label %88

88:                                               ; preds = %87, %86
  %.not90 = icmp eq ptr %4, null
  br i1 %.not90, label %90, label %89

89:                                               ; preds = %88
  store i32 %.082, ptr %4, align 4, !tbaa !32
  br label %90

90:                                               ; preds = %89, %88
  ret void
}